(lp0
(lp1
S'Transition points found by minibatch'
p2
aa(lp3
S'Errors for those transitions'
p4
aa(((lp5
I525
aI1097
aI1763
aI2437
aI3019
aI3552
aI4032
aI4781
aI5526
aI5988
aI6493
aI6982
aI7593
a(lp6
I0
aI0
aI0
aI0
aI0
aF0.13135593220338984
aF0.06779661016949153
aI0
aI0
aI0
aF0.09745762711864407
aI0
aI0
atp7
(lp8
(I413
S'proper'
p9
tp10
a(I992
g9
tp11
a(I1792
g9
tp12
a(I2472
g9
tp13
a(I3002
g9
tp14
a(I3550
g9
tp15
a(I4004
g9
tp16
a(I4790
g9
tp17
a(I5347
g9
tp18
a(I6003
g9
tp19
a(I6325
g9
tp20
a(I7040
g9
tp21
a(I7470
g9
tp22
a(I7921
g9
tp23
atp24
a(((lp25
I1152
aI2318
aI3347
aI4306
aI5100
aI5770
aI6569
aI7504
aI8098
a(lp26
I0
aI0
aI0
aI0
aF0.12373737373737374
aI0
aI0
aF0.24797979797979797
aF0.21666666666666667
atp27
(lp28
(I958
g9
tp29
a(I2304
g9
tp30
a(I3355
g9
tp31
a(I4194
g9
tp32
a(I5112
g9
tp33
a(I5925
g9
tp34
a(I7500
g9
tp35
a(I7891
g9
tp36
a(I8920
g9
tp37
a(I9649
g9
tp38
atp39
a(((lp40
I689
aI1627
aI2377
aI3174
aI4559
aI5116
aI5861
aI6514
a(lp41
F0.24393939393939393
aF0.16818181818181818
aI0
aF0.12525252525252525
aI0
aI0
aF0.2601010101010101
aI0
atp42
(lp43
(I1000
S'ayyyy'
p44
tp45
a(I2000
g44
tp46
a(I3234
g9
tp47
a(I3924
g9
tp48
a(I5175
g9
tp49
a(I5836
g9
tp50
a(I6545
g9
tp51
a(I7263
g9
tp52
a(I7935
g9
tp53
atp54
a(((lp55
I1011
aI1626
aI2551
aI3143
aI3840
aI4596
aI5429
aI6140
aI6964
aI8085
a(lp56
F0.1388888888888889
aI0
aF0.22626262626262628
aI0
aI0
aF0.201010101010101
aF0.21565656565656566
aI0
aI0
aI0
atp57
(lp58
(I1000
g44
tp59
a(I1583
g9
tp60
a(I2513
g9
tp61
a(I3151
g9
tp62
a(I3915
g9
tp63
a(I5467
g9
tp64
a(I6159
g9
tp65
a(I6958
g9
tp66
a(I7318
g9
tp67
a(I8933
g9
tp68
a(I9325
g9
tp69
atp70
a(((lp71
I1098
aI1879
aI2535
aI3607
aI4478
aI5231
aI5842
aI6868
a(lp72
I0
aF0.26515151515151514
aF0.0707070707070707
aF0.05757575757575758
aF0.2207070707070707
aI0
aI0
aI0
atp73
(lp74
(I1065
g9
tp75
a(I1881
g9
tp76
a(I2538
g9
tp77
a(I3641
g9
tp78
a(I4411
g9
tp79
a(I5244
g9
tp80
a(I5718
g9
tp81
a(I6996
g9
tp82
a(I8333
g9
tp83
atp84
a(((lp85
I1119
aI1761
aI2616
aI3313
aI3941
aI4506
aI5665
aI6313
aI7134
aI8162
a(lp86
I0
aI0
aF0.0898876404494382
aF0.23820224719101124
aI0
aI0
aI0
aI0
aI0
aI0
atp87
(lp88
(I1134
g9
tp89
a(I1743
g9
tp90
a(I3342
g9
tp91
a(I3955
g9
tp92
a(I4486
g9
tp93
a(I5662
g9
tp94
a(I6318
g9
tp95
a(I7124
g9
tp96
a(I8101
g9
tp97
a(I8538
g9
tp98
atp99
a(((lp100
I1358
aI2128
aI2878
a(lp101
I0
aF0.22373737373737373
aI0
atp102
(lp103
(I1365
g9
tp104
a(I2117
g9
tp105
a(I2889
g9
tp106
a(I3621
g9
tp107
a(I4023
g9
tp108
atp109
a.