(dp0
I0
(lp1
(lp2
(I911
I0
tp3
a(I786
I0
tp4
a(I915
I0
tp5
a(I835
F0.16396568160152525
tp6
a(I972
I0
tp7
a(I598
F0.11027332704995288
tp8
a(I523
F0.16090104585679807
tp9
a(I502
I0
tp10
a(I1309
F0.1085934159897392
tp11
a(I513
I0
tp12
aa(lp13
(I1024
I0
tp14
a(I799
I0
tp15
a(I807
I0
tp16
a(I920
F0.1576923076923077
tp17
a(I1150
F0.06321243523316063
tp18
a(I807
F0.13205128205128205
tp19
a(I383
I0
tp20
a(I541
F0.08620689655172414
tp21
a(I911
I0
tp22
a(I512
I0
tp23
aa(lp24
(I1012
I0
tp25
a(I864
I0
tp26
a(I784
I0
tp27
a(I1215
F0.07268292682926829
tp28
a(I828
F0.0735202492211838
tp29
a(I688
I0
tp30
a(I556
F0.07414104882459313
tp31
a(I390
F0.3073436083408885
tp32
a(I843
I0
tp33
a(I603
I0
tp34
aa(lp35
(I919
I0
tp36
a(I885
I0
tp37
a(I919
I0
tp38
a(I1253
F0.07196779063915451
tp39
a(I1503
F0.21210106382978725
tp40
a(I921
F0.05856142584341184
tp41
a(I697
I0
tp42
a(I630
I0
tp43
aa(lp44
(I794
I0
tp45
a(I994
I0
tp46
a(I879
I0
tp47
a(I1310
F0.08761625061184533
tp48
a(I760
F0.23486360612109114
tp49
a(I422
F0.04267892317793828
tp50
a(I513
I0
tp51
a(I739
F0.07329462989840348
tp52
a(I625
F0.023350253807106598
tp53
a(I739
I0
tp54
aasI1
(lp55
(lp56
(I987
I0
tp57
a(I1271
F0.06337745687926194
tp58
a(I1239
I0
tp59
a(I627
I0
tp60
a(I801
I0
tp61
a(I1009
I0
tp62
a(I1195
I0
tp63
a(I1096
F0.1067771818625061
tp64
a(I707
I0
tp65
a(I555
I0
tp66
aa(lp67
(I1109
F0.11868131868131868
tp68
a(I1242
F0.07127794179671025
tp69
a(I985
F0.10403638430926662
tp70
a(I790
F0.09054209919261823
tp71
a(I975
I0
tp72
a(I872
I0
tp73
a(I1529
F0.10199350950394066
tp74
a(I718
F0.16150178784266986
tp75
a(I676
I0
tp76
a(I592
I0
tp77
aa(lp78
(I1193
F0.13582417582417583
tp79
a(I1217
F0.07083515522518584
tp80
a(I911
F0.2635294117647059
tp81
a(I765
F0.0880503144654088
tp82
a(I1140
I0
tp83
a(I636
I0
tp84
a(I1633
F0.09611992945326278
tp85
a(I783
F0.2314540059347181
tp86
a(I561
I0
tp87
a(I686
I0
tp88
aa(lp89
(I1206
F0.20835164835164835
tp90
a(I1376
F0.06772207563764292
tp91
a(I702
F0.1943717277486911
tp92
a(I781
F0.09126539753639418
tp93
a(I1195
I0
tp94
a(I686
I0
tp95
a(I1586
F0.09661172161172162
tp96
a(I813
F0.2366504854368932
tp97
a(I443
I0
tp98
a(I766
I0
tp99
aa(lp100
(I2010
I0
tp101
a(I2099
F0.24142857142857144
tp102
a(I1260
I0
tp103
a(I667
I0
tp104
a(I1504
F0.1041069723018147
tp105
a(I778
F0.23780487804878048
tp106
a(I461
I0
tp107
a(I800
I0
tp108
aasI2
(lp109
(lp110
(I771
F0.12749244712990937
tp111
a(I668
I0
tp112
a(I1789
I0
tp113
a(I386
I0
tp114
a(I468
I0
tp115
a(I513
I0
tp116
a(I592
I0
tp117
a(I701
F0.10049191848208011
tp118
a(I613
I0
tp119
a(I964
I0
tp120
a(I426
I0
tp121
aa(lp122
(I803
F0.1299093655589124
tp123
a(I849
F0.06341154090044387
tp124
a(I1570
I0
tp125
a(I646
F0.09940652818991098
tp126
a(I726
F0.08296622613803231
tp127
a(I611
I0
tp128
a(I784
F0.10391459074733096
tp129
a(I413
I0
tp130
a(I853
F0.08289885297184567
tp131
a(I551
I0
tp132
aa(lp133
(I841
F0.1311178247734139
tp134
a(I969
F0.07342430149447693
tp135
a(I483
I0
tp136
a(I954
F0.25999121651295565
tp137
a(I624
F0.0944822373393802
tp138
a(I782
F0.08167770419426049
tp139
a(I528
I0
tp140
a(I881
F0.10286913925822254
tp141
a(I390
I0
tp142
a(I591
F0.0658458244111349
tp143
a(I733
I0
tp144
aa(lp145
(I861
F0.12930513595166163
tp146
a(I952
F0.07439104674127715
tp147
a(I471
I0
tp148
a(I2285
F0.2909011373578303
tp149
a(I480
I0
tp150
a(I1018
F0.09609224855861627
tp151
a(I732
I0
tp152
a(I769
I0
tp153
aa(lp154
(I1654
F0.19637462235649547
tp155
a(I609
I0
tp156
a(I2306
F0.2804508019072388
tp157
a(I400
F0.05921539600296077
tp158
a(I597
I0
tp159
a(I557
I0
tp160
a(I632
I0
tp161
a(I1046
I0
tp162
aasI3
(lp163
(lp164
(I1104
I0
tp165
a(I493
I0
tp166
a(I1012
I0
tp167
a(I627
F0.10954848260547742
tp168
a(I548
I0
tp169
a(I804
I0
tp170
a(I836
I0
tp171
a(I749
F0.09277708592777086
tp172
a(I754
I0
tp173
a(I1220
I0
tp174
a(I741
I0
tp175
a(I517
I0
tp176
aa(lp177
(I1164
I0
tp178
a(I397
I0
tp179
a(I1131
I0
tp180
a(I484
F0.10015772870662461
tp181
a(I684
F0.03934871099050204
tp182
a(I760
I0
tp183
a(I864
F0.03540372670807453
tp184
a(I676
F0.18305304010349288
tp185
a(I630
I0
tp186
a(I1395
I0
tp187
a(I749
F0.10380622837370242
tp188
a(I496
I0
tp189
aa(lp190
(I1033
I0
tp191
a(I575
F0.08328115216030056
tp192
a(I1186
I0
tp193
a(I372
F0.008576329331046312
tp194
a(I665
F0.05592991913746631
tp195
a(I995
I0
tp196
a(I657
F0.18945868945868946
tp197
a(I665
F0.17970265029088558
tp198
a(I604
I0
tp199
a(I1542
I0
tp200
a(I560
I0
tp201
a(I534
I0
tp202
aa(lp203
(I1125
F0.04291044776119403
tp204
a(I433
I0
tp205
a(I1236
I0
tp206
a(I337
F0.06432246998284734
tp207
a(I491
F0.09150757077024359
tp208
a(I566
I0
tp209
a(I877
F0.07413010590015129
tp210
a(I532
F0.248068669527897
tp211
a(I294
I0
tp212
a(I640
F0.16593503072870938
tp213
a(I667
I0
tp214
a(I1399
I0
tp215
a(I731
I0
tp216
aa(lp217
(I1189
F0.05223880597014925
tp218
a(I423
I0
tp219
a(I1189
F0.05100755667506297
tp220
a(I315
F0.0638481449525453
tp221
a(I923
F0.10495436766623208
tp222
a(I478
F0.04962610469068661
tp223
a(I985
F0.16987740805604204
tp224
a(I441
F0.05170157068062827
tp225
a(I534
I0
tp226
a(I589
I0
tp227
a(I1488
I0
tp228
a(I661
I0
tp229
aasI4
(lp230
(lp231
(I1111
I0
tp232
a(I837
I0
tp233
a(I582
I0
tp234
a(I710
I0
tp235
a(I523
F0.05806451612903226
tp236
a(I632
I0
tp237
a(I791
F0.07368421052631578
tp238
a(I802
I0
tp239
a(I919
I0
tp240
a(I983
I0
tp241
a(I395
I0
tp242
aa(lp243
(I1118
F0.11917098445595854
tp244
a(I795
F0.08608815426997245
tp245
a(I564
I0
tp246
a(I721
F0.040938592111832255
tp247
a(I781
F0.09516380655226209
tp248
a(I485
I0
tp249
a(I463
I0
tp250
a(I914
I0
tp251
a(I900
I0
tp252
a(I808
I0
tp253
a(I579
I0
tp254
aa(lp255
(I1159
F0.11813471502590674
tp256
a(I827
F0.10630758327427356
tp257
a(I469
I0
tp258
a(I1198
F0.05975308641975308
tp259
a(I774
F0.07727570399476097
tp260
a(I580
F0.07178750897343862
tp261
a(I822
I0
tp262
a(I809
I0
tp263
a(I611
I0
tp264
a(I738
I0
tp265
aa(lp266
(I1178
F0.09689119170984456
tp267
a(I835
F0.10488505747126436
tp268
a(I306
I0
tp269
a(I1340
F0.05645534474780194
tp270
a(I712
F0.2176199868507561
tp271
a(I526
F0.0759144237405107
tp272
a(I426
I0
tp273
a(I688
F0.1944608131997643
tp274
a(I685
I0
tp275
a(I591
I0
tp276
a(I793
I0
tp277
aa(lp278
(I1089
F0.09430051813471503
tp279
a(I933
F0.08035111411208642
tp280
a(I258
I0
tp281
a(I512
I0
tp282
a(I1228
F0.06338862559241706
tp283
a(I524
I0
tp284
a(I434
I0
tp285
a(I884
I0
tp286
a(I717
F0.05894308943089431
tp287
a(I651
I0
tp288
a(I975
F0.015151515151515152
tp289
aasS'description'
p290
S'tobesaved[i][j] contains a list of boundaries for sample i+3, with j+3 slow features'
p291
sI6
(lp292
(lp293
(I1363
I0
tp294
a(I787
I0
tp295
a(I692
I0
tp296
a(I874
I0
tp297
a(I520
I0
tp298
aa(lp299
(I1392
I0
tp300
a(I772
I0
tp301
a(I704
I0
tp302
a(I908
I0
tp303
a(I492
I0
tp304
aa(lp305
(I1411
I0
tp306
a(I752
F0.035886818495514144
tp307
a(I692
I0
tp308
a(I821
F0.045336112558624284
tp309
a(I586
I0
tp310
aa(lp311
(I1519
I0
tp312
a(I817
F0.04623415361670395
tp313
a(I432
I0
tp314
a(I855
F0.08175473579262213
tp315
a(I662
I0
tp316
aa(lp317
(I1779
I0
tp318
a(I564
F0.23589269195189638
tp319
a(I256
I0
tp320
a(I268
I0
tp321
a(I753
F0.051389617199790245
tp322
a(I665
I0
tp323
aasI5
(lp324
(lp325
(I1122
I0
tp326
a(I594
I0
tp327
a(I875
F0.1188423645320197
tp328
a(I651
I0
tp329
a(I766
I0
tp330
a(I533
I0
tp331
a(I610
I0
tp332
a(I549
F0.09047237790232186
tp333
a(I728
I0
tp334
a(I710
F0.08698092031425365
tp335
a(I983
I0
tp336
a(I529
I0
tp337
aa(lp338
(I1082
F0.08947368421052632
tp339
a(I644
I0
tp340
a(I858
F0.08426270136307311
tp341
a(I780
F0.04836415362731152
tp342
a(I614
I0
tp343
a(I505
I0
tp344
a(I585
I0
tp345
a(I689
F0.0990990990990991
tp346
a(I606
F0.08339272986457591
tp347
a(I815
F0.07038440714672442
tp348
a(I983
I0
tp349
a(I513
I0
tp350
aa(lp351
(I1141
F0.09421052631578947
tp352
a(I570
I0
tp353
a(I996
I0
tp354
a(I731
F0.036632891660171474
tp355
a(I536
I0
tp356
a(I501
I0
tp357
a(I575
I0
tp358
a(I774
F0.09037037037037036
tp359
a(I492
F0.0658682634730539
tp360
a(I929
F0.06599788806758183
tp361
a(I882
I0
tp362
a(I524
I0
tp363
aa(lp364
(I1161
F0.0931578947368421
tp365
a(I583
F0.11610006414368185
tp366
a(I1047
I0
tp367
a(I787
F0.057547956630525435
tp368
a(I389
I0
tp369
a(I510
I0
tp370
a(I594
I0
tp371
a(I902
F0.0963130173062453
tp372
a(I454
I0
tp373
a(I773
F0.20078519349411106
tp374
a(I896
I0
tp375
a(I545
I0
tp376
aa(lp377
(I1200
F0.09052631578947369
tp378
a(I477
F0.09802631578947368
tp379
a(I1132
F0.037282020444978956
tp380
a(I797
F0.05419136325148179
tp381
a(I345
I0
tp382
a(I557
F0.07649667405764966
tp383
a(I669
I0
tp384
a(I825
F0.13082583810302534
tp385
a(I459
I0
tp386
a(I701
F0.2367066895368782
tp387
a(I827
F0.00691699604743083
tp388
a(I561
I0
tp389
aas.