(dp0
I0
(lp1
(lp2
(I896
I0
tp3
a(I918
I0
tp4
a(I746
F0.23271889400921658
tp5
a(I852
F0.16
tp6
a(I829
I0
tp7
a(I439
F0.08797417271993543
tp8
a(I666
I0
tp9
a(I900
I0
tp10
a(I1160
I0
tp11
a(I487
I0
tp12
aa(lp13
(I834
I0
tp14
a(I572
I0
tp15
a(I492
I0
tp16
a(I793
I0
tp17
a(I736
F0.16939078751857356
tp18
a(I1001
F0.03994154895275207
tp19
a(I379
F0.3060836501901141
tp20
a(I671
F0.12112869924294563
tp21
a(I568
I0
tp22
a(I399
F0.0796812749003984
tp23
a(I662
I0
tp24
a(I612
I0
tp25
aa(lp26
(I911
I0
tp27
a(I786
I0
tp28
a(I391
I0
tp29
a(I722
I0
tp30
a(I687
F0.18368421052631578
tp31
a(I1126
F0.060514372163388806
tp32
a(I813
F0.046426389737324374
tp33
a(I615
I0
tp34
a(I426
F0.06306306306306306
tp35
a(I724
I0
tp36
a(I586
I0
tp37
aa(lp38
(I951
I0
tp39
a(I761
I0
tp40
a(I383
I0
tp41
a(I725
I0
tp42
a(I802
F0.14973544973544972
tp43
a(I1042
I0
tp44
a(I620
I0
tp45
a(I488
I0
tp46
a(I584
I0
tp47
a(I1070
I0
tp48
a(I477
I0
tp49
aa(lp50
(I966
I0
tp51
a(I752
I0
tp52
a(I380
I0
tp53
a(I725
I0
tp54
a(I847
I0
tp55
a(I973
I0
tp56
a(I788
I0
tp57
a(I785
I0
tp58
a(I1147
I0
tp59
a(I508
I0
tp60
aasI1
(lp61
(lp62
(I891
F0.090989010989011
tp63
a(I1115
I0
tp64
a(I370
F0.09701492537313433
tp65
a(I963
I0
tp66
a(I812
I0
tp67
a(I620
I0
tp68
a(I0
F0.2642669007901668
tp69
a(I0
F0.2369146005509642
tp70
a(I0
F0.24254090471607315
tp71
a(I1048
F0.087893864013267
tp72
a(I1524
F0.22628412771864878
tp73
a(I661
F0.09187907528156491
tp74
a(I854
I0
tp75
a(I519
F0.09142857142857143
tp76
aa(lp77
(I922
F0.09846153846153846
tp78
a(I1337
F0.04886630179827991
tp79
a(I1136
I0
tp80
a(I746
I0
tp81
a(I530
I0
tp82
a(I537
F0.10411622276029056
tp83
a(I742
F0.06636005256241786
tp84
a(I707
F0.15504587155963304
tp85
a(I1500
F0.089179548156956
tp86
a(I808
I0
tp87
a(I534
I0
tp88
aa(lp89
(I987
I0
tp90
a(I1271
F0.06337745687926194
tp91
a(I1239
I0
tp92
a(I627
I0
tp93
a(I801
I0
tp94
a(I1009
I0
tp95
a(I1195
I0
tp96
a(I1096
F0.1067771818625061
tp97
a(I707
I0
tp98
a(I555
I0
tp99
aa(lp100
(I1149
I0
tp101
a(I1211
I0
tp102
a(I1012
I0
tp103
a(I671
I0
tp104
a(I899
I0
tp105
a(I948
I0
tp106
a(I1342
I0
tp107
a(I874
F0.10882956878850103
tp108
a(I825
I0
tp109
a(I562
I0
tp110
aa(lp111
(I1027
I0
tp112
a(I1288
I0
tp113
a(I989
I0
tp114
a(I938
I0
tp115
a(I823
I0
tp116
a(I841
I0
tp117
a(I1558
I0
tp118
a(I784
I0
tp119
a(I644
I0
tp120
a(I582
I0
tp121
aasI2
(lp122
(lp123
(I788
I0
tp124
a(I856
F0.08228643216080402
tp125
a(I740
I0
tp126
a(I582
F0.19213174748398903
tp127
a(I1124
F0.14276807980049874
tp128
a(I471
F0.11052631578947368
tp129
a(I599
I0
tp130
a(I673
F0.060689655172413794
tp131
a(I619
I0
tp132
a(I1001
F0.04443254817987152
tp133
a(I448
I0
tp134
aa(lp135
(I793
I0
tp136
a(I834
F0.06742281033396345
tp137
a(I764
I0
tp138
a(I805
F0.14593850390087196
tp139
a(I669
I0
tp140
a(I647
F0.07179487179487179
tp141
a(I738
I0
tp142
a(I677
F0.075
tp143
a(I550
I0
tp144
a(I1037
I0
tp145
a(I409
I0
tp146
aa(lp147
(I771
F0.12749244712990937
tp148
a(I668
I0
tp149
a(I403
F0.12114771519659936
tp150
a(I1396
I0
tp151
a(I390
I0
tp152
a(I470
I0
tp153
a(I506
I0
tp154
a(I602
I0
tp155
a(I687
F0.10042735042735043
tp156
a(I604
I0
tp157
a(I968
I0
tp158
a(I426
I0
tp159
aa(lp160
(I770
F0.113595166163142
tp161
a(I815
I0
tp162
a(I795
I0
tp163
a(I849
F0.16986301369863013
tp164
a(I692
I0
tp165
a(I626
I0
tp166
a(I662
I0
tp167
a(I665
I0
tp168
a(I766
I0
tp169
a(I777
I0
tp170
a(I451
I0
tp171
aa(lp172
(I786
I0
tp173
a(I771
I0
tp174
a(I785
I0
tp175
a(I887
F0.16292639138240575
tp176
a(I675
I0
tp177
a(I657
I0
tp178
a(I672
I0
tp179
a(I668
I0
tp180
a(I759
I0
tp181
a(I825
I0
tp182
a(I417
I0
tp183
aasI3
(lp184
(lp185
(I1036
I0
tp186
a(I569
I0
tp187
a(I881
I0
tp188
a(I655
F0.08955223880597014
tp189
a(I815
F0.019218025182239893
tp190
a(I547
I0
tp191
a(I953
I0
tp192
a(I721
F0.033672172808132145
tp193
a(I791
I0
tp194
a(I1023
I0
tp195
a(I926
I0
tp196
a(I689
I0
tp197
aa(lp198
(I1045
I0
tp199
a(I559
I0
tp200
a(I912
I0
tp201
a(I686
F0.08795013850415513
tp202
a(I652
I0
tp203
a(I734
I0
tp204
a(I898
I0
tp205
a(I675
F0.05505181347150259
tp206
a(I801
I0
tp207
a(I1120
I0
tp208
a(I831
I0
tp209
a(I507
I0
tp210
aa(lp211
(I1104
I0
tp212
a(I493
I0
tp213
a(I1012
I0
tp214
a(I627
F0.10954848260547742
tp215
a(I548
I0
tp216
a(I804
I0
tp217
a(I836
I0
tp218
a(I749
F0.09277708592777086
tp219
a(I754
I0
tp220
a(I1220
I0
tp221
a(I741
I0
tp222
a(I517
I0
tp223
aa(lp224
(I1130
I0
tp225
a(I465
I0
tp226
a(I1101
I0
tp227
a(I640
I0
tp228
a(I554
I0
tp229
a(I761
I0
tp230
a(I749
I0
tp231
a(I790
F0.1
tp232
a(I662
I0
tp233
a(I1328
I0
tp234
a(I949
I0
tp235
a(I395
I0
tp236
aa(lp237
(I828
I0
tp238
a(I390
I0
tp239
a(I676
I0
tp240
a(I856
I0
tp241
a(I612
I0
tp242
a(I628
I0
tp243
a(I756
I0
tp244
a(I703
I0
tp245
a(I787
I0
tp246
a(I567
I0
tp247
a(I618
I0
tp248
a(I724
I0
tp249
a(I909
I0
tp250
a(I432
I0
tp251
aasI4
(lp252
(lp253
(I1046
I0
tp254
a(I830
I0
tp255
a(I678
I0
tp256
a(I1083
F0.0514018691588785
tp257
a(I840
I0
tp258
a(I697
I0
tp259
a(I578
I0
tp260
a(I1403
I0
tp261
a(I1146
I0
tp262
aa(lp263
(I1117
F0.01606217616580311
tp264
a(I776
I0
tp265
a(I654
I0
tp266
a(I1031
F0.04500775995861355
tp267
a(I907
I0
tp268
a(I638
I0
tp269
a(I846
I0
tp270
a(I958
I0
tp271
a(I1350
I0
tp272
aa(lp273
(I1111
I0
tp274
a(I837
I0
tp275
a(I582
I0
tp276
a(I710
I0
tp277
a(I523
F0.05806451612903226
tp278
a(I632
I0
tp279
a(I791
F0.07368421052631578
tp280
a(I802
I0
tp281
a(I919
I0
tp282
a(I983
I0
tp283
a(I395
I0
tp284
aa(lp285
(I964
F0.10207253886010363
tp286
a(I914
I0
tp287
a(I606
I0
tp288
a(I839
I0
tp289
a(I552
I0
tp290
a(I656
I0
tp291
a(I667
I0
tp292
a(I898
I0
tp293
a(I862
I0
tp294
a(I889
I0
tp295
a(I417
I0
tp296
aa(lp297
(I925
I0
tp298
a(I502
I0
tp299
a(I566
I0
tp300
a(I657
I0
tp301
a(I870
I0
tp302
a(I900
I0
tp303
a(I710
I0
tp304
a(I942
I0
tp305
a(I878
I0
tp306
a(I872
I0
tp307
a(I430
I0
tp308
aasS'description'
p309
S'tobesaved[i][j] contains a list of boundaries for sample i+3, with j+3 slow features'
p310
sI6
(lp311
(lp312
(I1339
I0
tp313
a(I793
I0
tp314
a(I714
I0
tp315
a(I783
I0
tp316
a(I416
I0
tp317
aa(lp318
(I1356
I0
tp319
a(I781
I0
tp320
a(I704
I0
tp321
a(I810
I0
tp322
a(I533
I0
tp323
aa(lp324
(I1363
I0
tp325
a(I787
I0
tp326
a(I692
I0
tp327
a(I874
I0
tp328
a(I520
I0
tp329
aa(lp330
(I1378
I0
tp331
a(I740
I0
tp332
a(I823
I0
tp333
a(I890
I0
tp334
a(I470
I0
tp335
aa(lp336
(I1415
I0
tp337
a(I716
I0
tp338
a(I823
I0
tp339
a(I927
I0
tp340
a(I446
I0
tp341
aasI5
(lp342
(lp343
(I1115
I0
tp344
a(I645
I0
tp345
a(I839
F0.0689873417721519
tp346
a(I753
I0
tp347
a(I586
I0
tp348
a(I968
I0
tp349
a(I767
I0
tp350
a(I658
I0
tp351
a(I796
F0.04683342203299627
tp352
a(I988
I0
tp353
a(I370
I0
tp354
aa(lp355
(I1114
I0
tp356
a(I629
I0
tp357
a(I846
F0.10457107075767064
tp358
a(I815
I0
tp359
a(I520
I0
tp360
a(I677
I0
tp361
a(I573
I0
tp362
a(I515
F0.08972267536704731
tp363
a(I596
I0
tp364
a(I865
I0
tp365
a(I972
I0
tp366
a(I532
I0
tp367
aa(lp368
(I1122
I0
tp369
a(I594
I0
tp370
a(I491
I0
tp371
a(I572
I0
tp372
a(I575
I0
tp373
a(I704
I0
tp374
a(I513
I0
tp375
a(I596
I0
tp376
a(I542
F0.09570154095701541
tp377
a(I727
I0
tp378
a(I705
F0.08906426155580609
tp379
a(I977
I0
tp380
a(I531
I0
tp381
aa(lp382
(I1079
I0
tp383
a(I827
I0
tp384
a(I747
I0
tp385
a(I658
I0
tp386
a(I752
I0
tp387
a(I464
I0
tp388
a(I615
I0
tp389
a(I583
I0
tp390
a(I712
I0
tp391
a(I741
F0.09588268471517203
tp392
a(I829
I0
tp393
a(I588
I0
tp394
aa(lp395
(I881
I0
tp396
a(I507
I0
tp397
a(I651
I0
tp398
a(I647
I0
tp399
a(I648
I0
tp400
a(I754
I0
tp401
a(I569
I0
tp402
a(I895
I0
tp403
a(I423
I0
tp404
a(I592
I0
tp405
a(I734
I0
tp406
a(I954
I0
tp407
a(I465
I0
tp408
aas.