(lp0
(lp1
S'Transition points found by minibatch'
p2
aa(lp3
S'Errors for those transitions'
p4
aa(lp5
(lp6
(lp7
(lp8
(lp9
I891
aI1833
aI3812
aI5393
aI6125
aI7408
aa(lp10
I817
aI1828
aI3250
aI4687
aI5357
aI6209
aI7429
aa(lp11
I911
aI1932
aI3365
aI4700
aI5327
aI6315
aI7408
aa(lp12
I959
aI1956
aI3146
aI4362
aI5381
aI6355
aI7408
aa(lp13
I978
aI1969
aI3001
aI3866
aI4768
aI5285
aI6249
aI7287
aaa(lp14
(lp15
I835
aI2263
aI3338
aI4450
aI5894
aI6831
aI8190
aa(lp16
I1152
aI2318
aI3347
aI4306
aI5100
aI5770
aI6569
aI7504
aI8100
aa(lp17
I1188
aI2239
aI3401
aI4213
aI5131
aI5986
aI7500
aI8086
aa(lp18
I1191
aI2120
aI3475
aI4163
aI5062
aI6004
aI7474
aI7955
aI9007
aa(lp19
I924
aI1929
aI3315
aI4132
aI5079
aI6052
aI7505
aI7989
aI9023
aaa(lp20
(lp21
I686
aI1643
aI2381
aI2968
aI4160
aI5171
aI5828
aI6545
aa(lp22
I689
aI1627
aI2377
aI3174
aI4559
aI5116
aI5861
aI6514
aa(lp23
I730
aI1475
aI2376
aI3192
aI4585
aI5103
aI5900
aI6533
aa(lp24
I752
aI1449
aI2438
aI3240
aI3954
aI5168
aI5839
aI6570
aa(lp25
I819
aI1384
aI2397
aI3249
aI4207
aI5159
aI5950
aI6524
aaa(lp26
(lp27
I1007
aI1609
aI2481
aI3135
aI3912
aI4507
aI5458
aI6152
aI6970
aI8072
aI8854
aa(lp28
I1004
aI1611
aI2505
aI3147
aI3817
aI4611
aI5449
aI6164
aI6964
aI8077
aI8911
aa(lp29
I957
aI1606
aI2540
aI3199
aI3820
aI4625
aI5453
aI6167
aI6917
aI8106
aI8917
aa(lp30
I849
aI1736
aI2563
aI3310
aI3813
aI4646
aI5468
aI6177
aI6822
aI8052
aI8760
aa(lp31
I858
aI1781
aI2636
aI3242
aI3790
aI4658
aI5474
aI6283
aI6838
aI7967
aI8943
aaa(lp32
(lp33
I1045
aI1879
aI2562
aI3637
aI4401
aI5212
aI5876
aI6887
aa(lp34
I1098
aI1879
aI2535
aI3607
aI4478
aI5231
aI5842
aI6868
aa(lp35
I1114
aI1874
aI2550
aI3560
aI4457
aI5219
aI5925
aI6904
aa(lp36
I1001
aI1878
aI3192
aI4505
aI5173
aI6151
aI7121
aa(lp37
I950
aI1892
aI2498
aI3408
aI4435
aI5104
aI6091
aI7077
aaa(lp38
(lp39
I1120
aI1820
aI2693
aI3982
aI4914
aI5640
aI6361
aI7110
aI8128
aa(lp40
I1119
aI1761
aI2616
aI3313
aI3941
aI4506
aI5665
aI6313
aI7134
aI8162
aa(lp41
I1125
aI1728
aI2625
aI3335
aI3933
aI4508
aI5693
aI6314
aI7115
aI8184
aa(lp42
I1141
aI1722
aI2627
aI3422
aI3939
aI4500
aI5729
aI6389
aI7146
aI8148
aa(lp43
I1002
aI1912
aI2799
aI3694
aI4621
aI5545
aI6416
aI7187
aI8138
aaa(lp44
(lp45
I1348
aI2127
aI2885
aa(lp46
I1358
aI2128
aI2878
aa(lp47
I1359
aI2131
aI2868
aa(lp48
I1369
aI2146
aI2859
aa(lp49
I1367
aI2170
aI2845
aaaag7
ag7
ag7
ag7
aa(lp50
g7
ag7
ag7
ag7
ag7
aa(lp51
g7
ag7
ag7
ag7
ag7
aa(lp52
g7
ag7
ag7
ag7
ag7
aa(lp53
g7
ag7
ag7
ag7
ag7
aa(lp54
g7
ag7
ag7
ag7
ag7
aa(lp55
g7
ag7
ag7
ag7
ag7
aaa(lp56
(lp57
(lp58
I0
aF0.17525252525252524
aF0.29494949494949496
aI0
aI0
aF0.09595959595959595
aa(lp59
I0
aF0.04898989898989899
aI0
aI0
aI0
aI0
aI0
aa(lp60
I0
aI0
aI0
aI0
aI0
aF0.08131313131313131
aI0
aa(lp61
I0
aI0
aI0
aF0.12474747474747475
aI0
aF0.10252525252525252
aI0
aa(lp62
I0
aI0
aI0
aF0.08232323232323233
aI0
aI0
aI0
aI0
aaa(lp63
(lp64
I0
aI0
aF0.06464646464646465
aI0
aF0.16414141414141414
aF0.06262626262626263
aI0
aa(lp65
I0
aI0
aI0
aI0
aF0.12373737373737374
aI0
aI0
aF0.2474747474747475
aF0.21717171717171718
aa(lp66
I0
aI0
aF0.07171717171717172
aI0
aF0.11818181818181818
aI0
aI0
aF0.1893939393939394
aa(lp67
I0
aI0
aI0
aI0
aI0
aI0
aI0
aI0
aF0.12323232323232323
aa(lp68
I0
aI0
aI0
aI0
aI0
aI0
aI0
aI0
aF0.10909090909090909
aaa(lp69
(lp70
F0.1797979797979798
aF0.16818181818181818
aI0
aF0.13636363636363635
aF0.10909090909090909
aF0.1393939393939394
aI0
aI0
aa(lp71
F0.24393939393939393
aF0.16818181818181818
aI0
aF0.12525252525252525
aI0
aI0
aF0.2601010101010101
aI0
aa(lp72
F0.25303030303030305
aI0
aI0
aF0.14343434343434344
aI0
aI0
aF0.24646464646464647
aI0
aa(lp73
F0.2585858585858586
aI0
aF0.09545454545454546
aF0.14393939393939395
aI0
aI0
aF0.22373737373737373
aI0
aa(lp74
F0.19797979797979798
aI0
aF0.13232323232323231
aF0.13232323232323231
aI0
aI0
aF0.16717171717171717
aI0
aaa(lp75
(lp76
F0.09887640449438202
aI0
aI0
aF0.035955056179775284
aI0
aI0
aI0
aI0
aI0
aI0
aF0.06123595505617978
aa(lp77
F0.10168539325842697
aI0
aI0
aI0
aI0
aI0
aF0.12696629213483146
aF0.14887640449438203
aI0
aI0
aI0
aa(lp78
F0.09662921348314607
aI0
aI0
aF0.20842696629213484
aI0
aI0
aI0
aF0.149438202247191
aI0
aI0
aI0
aa(lp79
I0
aF0.10730337078651686
aF0.16348314606741574
aI0
aI0
aI0
aF0.13707865168539327
aF0.13876404494382022
aI0
aI0
aI0
aa(lp80
I0
aI0
aF0.15674157303370786
aI0
aI0
aI0
aF0.1393258426966292
aI0
aI0
aI0
aI0
aaa(lp81
(lp82
I0
aF0.23333333333333334
aF0.10656565656565657
aF0.0691919191919192
aI0
aI0
aI0
aI0
aa(lp83
I0
aF0.26515151515151514
aF0.0707070707070707
aF0.05757575757575758
aF0.2207070707070707
aI0
aI0
aI0
aa(lp84
I0
aF0.2792929292929293
aF0.3111111111111111
aF0.06464646464646465
aF0.13333333333333333
aI0
aI0
aI0
aa(lp85
F0.12171717171717172
aF0.19797979797979798
aF0.32575757575757575
aI0
aI0
aI0
aI0
aa(lp86
I0
aF0.10202020202020202
aI0
aI0
aI0
aI0
aI0
aI0
aaa(lp87
(lp88
I0
aI0
aF0.0050561797752808986
aI0
aI0
aF0.16741573033707866
aF0.10112359550561797
aI0
aF0.10393258426966293
aa(lp89
I0
aI0
aF0.0898876404494382
aF0.23820224719101124
aI0
aI0
aI0
aI0
aI0
aI0
aa(lp90
I0
aI0
aF0.10224719101123596
aF0.23202247191011235
aI0
aI0
aI0
aI0
aI0
aI0
aa(lp91
I0
aI0
aF0.10168539325842697
aF0.15337078651685393
aI0
aI0
aI0
aI0
aF0.10112359550561797
aI0
aa(lp92
I0
aI0
aI0
aI0
aI0
aI0
aI0
aI0
aI0
aaa(lp93
(lp94
I0
aF0.2196969696969697
aI0
aa(lp95
I0
aF0.22373737373737373
aI0
aa(lp96
I0
aF0.2196969696969697
aI0
aa(lp97
I0
aF0.2085858585858586
aI0
aa(lp98
I0
aF0.20202020202020202
aI0
aaaa.