(dp0
S'boundariesmiddle'
p1
(lp2
(lp3
(lp4
(I896
I0
tp5
aa(lp6
(I834
I0
tp7
aa(lp8
(I911
I0
tp9
aa(lp10
(I951
I0
tp11
aa(lp12
(I966
I0
tp13
aaa(lp14
(lp15
(I892
F0.09186813186813186
tp16
aa(lp17
(I922
F0.09846153846153846
tp18
aa(lp19
(I987
I0
tp20
aa(lp21
(I1149
I0
tp22
aa(lp23
(I1027
I0
tp24
aaa(lp25
(lp26
(I788
I0
tp27
aa(lp28
(I793
I0
tp29
aa(lp30
(I771
F0.12749244712990937
tp31
aa(lp32
(I770
F0.113595166163142
tp33
aa(lp34
(I786
I0
tp35
aaa(lp36
(lp37
(I1036
I0
tp38
aa(lp39
(I1045
I0
tp40
aa(lp41
(I1104
I0
tp42
aa(lp43
(I1130
I0
tp44
aa(lp45
(I828
I0
tp46
aaa(lp47
(lp48
(I1046
I0
tp49
aa(lp50
(I1117
F0.01606217616580311
tp51
aa(lp52
(I1111
I0
tp53
aa(lp54
(I964
F0.10207253886010363
tp55
aa(lp56
(I925
I0
tp57
aaa(lp58
(lp59
(I1115
I0
tp60
aa(lp61
(I1114
I0
tp62
aa(lp63
(I1122
I0
tp64
aa(lp65
(I1079
I0
tp66
aa(lp67
(I881
I0
tp68
aaa(lp69
(lp70
(I1339
I0
tp71
aa(lp72
(I1356
I0
tp73
aa(lp74
(I1363
I0
tp75
aa(lp76
(I1378
I0
tp77
aa(lp78
(I1415
I0
tp79
aaasS'boundariesterrible'
p80
(lp81
(lp82
(lp83
(I1793
I0
tp84
aa(lp85
(I1896
I0
tp86
aa(lp87
(I942
I0
tp88
aa(lp89
(I948
I0
tp90
aa(lp91
(I1177
I0
tp92
aaa(lp93
(lp94
(I2064
F0.03189655172413793
tp95
aa(lp96
(I2268
I0
tp97
aa(lp98
(I2273
I0
tp99
aa(lp100
(I2299
I0
tp101
aa(lp102
(I2338
I0
tp103
aaa(lp104
(lp105
(I1639
F0.030672268907563024
tp106
aa(lp107
(I1637
F0.02226890756302521
tp108
aa(lp109
(I1623
I0
tp110
aa(lp111
(I1636
I0
tp112
aa(lp113
(I1621
I0
tp114
aaa(lp115
(lp116
(I2629
F0.23954372623574144
tp117
aa(lp118
(I0
F0.2509505703422053
tp119
aa(lp120
(I1687
F0.31140684410646385
tp121
aa(lp122
(I1769
F0.28403041825095054
tp123
aa(lp124
(I756
F0.24752851711026616
tp125
aaa(lp126
(lp127
(I976
I0
tp128
aa(lp129
(I1891
I0
tp130
aa(lp131
(I1900
I0
tp132
aa(lp133
(I1894
I0
tp134
aa(lp135
(I1900
I0
tp136
aaa(lp137
(lp138
(I1891
I0
tp139
aa(lp140
(I1915
I0
tp141
aa(lp142
(I1927
I0
tp143
aa(lp144
(I1935
I0
tp145
aa(lp146
(I1950
I0
tp147
aaa(lp148
(lp149
(I2129
I0
tp150
aa(lp151
(I2130
I0
tp152
aa(lp153
(I2127
I0
tp154
aa(lp155
(I2117
I0
tp156
aa(lp157
(I2116
I0
tp158
aaasS'boundarieslower'
p159
(lp160
(lp161
(lp162
(I349
I0
tp163
aa(lp164
(I738
I0
tp165
aa(lp166
(I745
I0
tp167
aa(lp168
(I743
I0
tp169
aa(lp170
(I743
I0
tp171
aaa(lp172
(lp173
(I338
I0
tp174
aa(lp175
(I955
I0
tp176
aa(lp177
(I833
I0
tp178
aa(lp179
(I821
I0
tp180
aa(lp181
(I834
I0
tp182
aaa(lp183
(lp184
(I799
I0
tp185
aa(lp186
(I815
I0
tp187
aa(lp188
(I864
I0
tp189
aa(lp190
(I629
I0
tp191
aa(lp192
(I620
I0
tp193
aaa(lp194
(lp195
(I1007
I0
tp196
aa(lp197
(I1024
I0
tp198
aa(lp199
(I714
I0
tp200
aa(lp201
(I684
I0
tp202
aa(lp203
(I684
I0
tp204
aaa(lp205
(lp206
(I1104
I0
tp207
aa(lp208
(I1111
I0
tp209
aa(lp210
(I1092
I0
tp211
aa(lp212
(I830
I0
tp213
aa(lp214
(I770
I0
tp215
aaa(lp216
(lp217
(I1109
I0
tp218
aa(lp219
(I1110
I0
tp220
aa(lp221
(I1099
I0
tp222
aa(lp223
(I1069
I0
tp224
aa(lp225
(I765
I0
tp226
aaa(lp227
(lp228
(I624
F0.18777567737870196
tp229
aa(lp230
(I641
F0.20415879017013233
tp231
aa(lp232
(I721
I0
tp233
aa(lp234
(I774
I0
tp235
aa(lp236
(I798
I0
tp237
aaasS'boundariesupper'
p238
(lp239
(lp240
(lp241
(I1738
I0
tp242
aa(lp243
(I831
I0
tp244
aa(lp245
(I903
I0
tp246
aa(lp247
(I1001
I0
tp248
aa(lp249
(I1072
I0
tp250
aaa(lp251
(lp252
(I2056
F0.0740354535974974
tp253
aa(lp254
(I958
F0.2780674313521029
tp255
aa(lp256
(I943
F0.26520681265206814
tp257
aa(lp258
(I982
F0.2196732707681613
tp259
aa(lp260
(I1067
F0.21063607924921793
tp261
aaa(lp262
(lp263
(I680
F0.19633118492811105
tp264
aa(lp265
(I680
F0.255825483391175
tp266
aa(lp267
(I727
F0.2627664848785325
tp268
aa(lp269
(I748
F0.27119484382746656
tp270
aa(lp271
(I809
F0.2151710461080813
tp272
aaa(lp273
(lp274
(I1011
F0.16658801321378008
tp275
aa(lp276
(I1012
F0.17366682397357244
tp277
aa(lp278
(I1006
F0.16989145823501653
tp279
aa(lp280
(I1011
F0.16328456819254367
tp281
aa(lp282
(I1012
F0.11373289287399717
tp283
aaa(lp284
(lp285
(I988
I0
tp286
aa(lp287
(I1014
F0.1608888888888889
tp288
aa(lp289
(I1006
F0.16266666666666665
tp290
aa(lp291
(I1021
F0.1751111111111111
tp292
aa(lp293
(I1042
F0.16266666666666665
tp294
aaa(lp295
(lp296
(I1082
F0.19264069264069264
tp297
aa(lp298
(I1064
F0.18744588744588744
tp299
aa(lp300
(I1050
F0.18917748917748917
tp301
aa(lp302
(I1049
F0.18787878787878787
tp303
aa(lp304
(I1057
F0.1800865800865801
tp305
aaa(lp306
(lp307
(I1295
F0.15728542914171656
tp308
aa(lp309
(I1183
F0.15489021956087826
tp310
aa(lp311
(I1126
I0
tp312
aa(lp313
(I1187
I0
tp314
aa(lp315
(I1157
I0
tp316
aaas.